; Function Attrs: nounwind uwtable
define internal range(i32 0, 2) i32 @p_get_params(ptr noundef readonly captures(none) %0, ptr noundef captures(none) %1) #0 {
  %3 = alloca [256 x i8], align 16
  %4 = alloca [16 x i8], align 16
  %5 = getelementptr inbounds nuw i8, ptr %0, i64 16
  %6 = load ptr, ptr %5, align 8, !tbaa !20
  %7 = getelementptr inbounds nuw i8, ptr %0, i64 24
  %8 = getelementptr inbounds nuw i8, ptr %0, i64 8
  br label %9

9:                                                ; preds = %2, %97
  %.072 = phi ptr [ %1, %2 ], [ %98, %97 ]
  %10 = load ptr, ptr %.072, align 8, !tbaa !24
  %.not56 = icmp eq ptr %10, null
  br i1 %.not56, label %.critedge, label %11

11:                                               ; preds = %9
  %12 = call i32 @strcmp(ptr noundef nonnull dereferenceable(1) %10, ptr noundef nonnull dereferenceable(9) @.str.3) #13
  %13 = icmp eq i32 %12, 0
  br i1 %13, label %14, label %38

14:                                               ; preds = %11
  call void @llvm.lifetime.start.p0(i64 256, ptr nonnull %3) #12
  store ptr null, ptr @p_get_params.greeting, align 8, !tbaa !27
  store ptr null, ptr @p_get_params.provname, align 8, !tbaa !27
  store ptr null, ptr @p_get_params.opensslv, align 8, !tbaa !27
  %15 = load ptr, ptr @c_get_params, align 8, !tbaa !11
  %16 = call i32 %15(ptr noundef %6, ptr noundef nonnull @p_get_params.counter_request) #12
  %.not65 = icmp eq i32 %16, 0
  br i1 %.not65, label %26, label %17

17:                                               ; preds = %14
  %18 = load ptr, ptr @p_get_params.greeting, align 8, !tbaa !27
  %.not66 = icmp eq ptr %18, null
  br i1 %.not66, label %21, label %19

19:                                               ; preds = %17
  %20 = call ptr @strcpy(ptr noundef nonnull dereferenceable(1) %3, ptr noundef nonnull dereferenceable(1) %18) #12
  br label %27

21:                                               ; preds = %17
  %22 = load ptr, ptr getelementptr inbounds nuw (i8, ptr @p_get_params.counter_request, i64 16), align 16, !tbaa !28
  %23 = load ptr, ptr %22, align 8, !tbaa !11
  %24 = load ptr, ptr getelementptr inbounds nuw (i8, ptr @p_get_params.counter_request, i64 56), align 8, !tbaa !28
  %25 = load ptr, ptr %24, align 8, !tbaa !11
  call void (ptr, i64, ptr, ...) @local_snprintf(ptr noundef %3, i64 poison, ptr noundef nonnull @.str.8, ptr noundef %23, ptr noundef %25)
  br label %27

26:                                               ; preds = %14
  call void (ptr, i64, ptr, ...) @local_snprintf(ptr noundef %3, i64 poison, ptr noundef nonnull @.str.9)
  br label %27

27:                                               ; preds = %19, %21, %26
  %28 = call i64 @strlen(ptr noundef nonnull dereferenceable(1) %3) #13
  %29 = add i64 %28, 1
  %30 = getelementptr inbounds nuw i8, ptr %.072, i64 32
  store i64 %29, ptr %30, align 8, !tbaa !29
  %31 = getelementptr inbounds nuw i8, ptr %.072, i64 24
  %32 = load i64, ptr %31, align 8, !tbaa !30
  %.not67 = icmp ult i64 %32, %29
  br i1 %.not67, label %37, label %33

33:                                               ; preds = %27
  %34 = getelementptr inbounds nuw i8, ptr %.072, i64 16
  %35 = load ptr, ptr %34, align 8, !tbaa !28
  %36 = call ptr @strcpy(ptr noundef nonnull dereferenceable(1) %35, ptr noundef nonnull dereferenceable(1) %3) #12
  br label %37

37:                                               ; preds = %27, %33
  %.1 = phi i32 [ 1, %33 ], [ 0, %27 ]
  call void @llvm.lifetime.end.p0(i64 256, ptr nonnull %3) #12
  br label %97

38:                                               ; preds = %11
  %39 = call i32 @strcmp(ptr noundef nonnull dereferenceable(1) %10, ptr noundef nonnull dereferenceable(13) @.str.4) #13
  %40 = icmp eq i32 %39, 0
  br i1 %40, label %41, label %84

41:                                               ; preds = %38
  %42 = load ptr, ptr %7, align 8, !tbaa !21
  %43 = call ptr @EVP_MD_fetch(ptr noundef %42, ptr noundef nonnull @.str.10, ptr noundef null) #12
  %44 = call ptr @EVP_MD_CTX_new() #12
  call void @llvm.lifetime.start.p0(i64 16, ptr nonnull %4) #12
  %45 = load ptr, ptr %7, align 8, !tbaa !21
  %46 = call ptr @OSSL_PROVIDER_load(ptr noundef %45, ptr noundef nonnull @.str.12) #12
  %47 = icmp eq ptr %46, null
  br i1 %47, label %.thread, label %48

48:                                               ; preds = %41
  %49 = load ptr, ptr %7, align 8, !tbaa !21
  %50 = call i32 @OSSL_PROVIDER_available(ptr noundef %49, ptr noundef nonnull @.str.12) #12
  %.not57 = icmp eq i32 %50, 0
  br i1 %.not57, label %.thread, label %53

.thread:                                          ; preds = %41, %48
  %51 = load ptr, ptr %0, align 8, !tbaa !14
  %52 = load ptr, ptr %8, align 8, !tbaa !19
  call void (i32, i32, ptr, i32, ptr, ptr, ...) @p_set_error(i32 poison, i32 noundef 3, ptr noundef %51, i32 noundef 166, ptr noundef %52, ptr poison)
  br label %74

53:                                               ; preds = %48
  %54 = load ptr, ptr %7, align 8, !tbaa !21
  %55 = call i32 @OSSL_PROVIDER_available(ptr noundef %54, ptr noundef nonnull @.str.12) #12
  %.not59 = icmp eq i32 %55, 0
  br i1 %.not59, label %74, label %56

56:                                               ; preds = %53
  %57 = load ptr, ptr %7, align 8, !tbaa !21
  %58 = call i32 @OSSL_PROVIDER_available(ptr noundef %57, ptr noundef nonnull @.str.13) #12
  %.not60 = icmp eq i32 %58, 0
  br i1 %.not60, label %74, label %59

59:                                               ; preds = %56
  %60 = load ptr, ptr %7, align 8, !tbaa !21
  %61 = call i32 @OSSL_PROVIDER_available(ptr noundef %60, ptr noundef nonnull @.str.14) #12
  %.not61 = icmp eq i32 %61, 0
  br i1 %.not61, label %74, label %62

62:                                               ; preds = %59
  %63 = load ptr, ptr %7, align 8, !tbaa !21
  %64 = call i32 @OSSL_PROVIDER_available(ptr noundef %63, ptr noundef nonnull @.str.15) #12
  %65 = icmp ne i32 %64, 0
  %66 = icmp ne ptr %43, null
  %or.cond = select i1 %65, i1 %66, i1 false
  %67 = icmp ne ptr %44, null
  %or.cond3 = select i1 %or.cond, i1 %67, i1 false
  br i1 %or.cond3, label %68, label %74

68:                                               ; preds = %62
  %69 = call i32 @EVP_DigestInit_ex(ptr noundef nonnull %44, ptr noundef nonnull %43, ptr noundef null) #12
  %.not62 = icmp eq i32 %69, 0
  br i1 %.not62, label %74, label %70

70:                                               ; preds = %68
  %71 = call i32 @EVP_DigestUpdate(ptr noundef nonnull %44, ptr noundef nonnull @.str.11, i64 noundef 11) #12
  %.not63 = icmp eq i32 %71, 0
  br i1 %.not63, label %74, label %72

72:                                               ; preds = %70
  %73 = call i32 @EVP_DigestFinal(ptr noundef nonnull %44, ptr noundef nonnull %4, ptr noundef null) #12
  %.not64 = icmp ne i32 %73, 0
  %spec.select = zext i1 %.not64 to i32
  br label %74

74:                                               ; preds = %.thread, %72, %68, %70, %62, %59, %56, %53
  %.270 = phi i32 [ 1, %70 ], [ 1, %68 ], [ 1, %62 ], [ 1, %59 ], [ 1, %56 ], [ 1, %53 ], [ 1, %72 ], [ 0, %.thread ]
  %.051 = phi i32 [ 0, %70 ], [ 0, %68 ], [ 0, %62 ], [ 0, %59 ], [ 0, %56 ], [ 0, %53 ], [ %spec.select, %72 ], [ 0, %.thread ]
  call void @EVP_MD_CTX_free(ptr noundef %44) #12
  call void @EVP_MD_free(ptr noundef %43) #12
  %75 = call i32 @OSSL_PROVIDER_unload(ptr noundef %46) #12
  %76 = getelementptr inbounds nuw i8, ptr %.072, i64 24
  %77 = load i64, ptr %76, align 8, !tbaa !30
  %78 = icmp ugt i64 %77, 3
  br i1 %78, label %79, label %83

79:                                               ; preds = %74
  %80 = getelementptr inbounds nuw i8, ptr %.072, i64 16
  %81 = load ptr, ptr %80, align 8, !tbaa !28
  store i32 %.051, ptr %81, align 4, !tbaa !31
  %82 = getelementptr inbounds nuw i8, ptr %.072, i64 32
  store i64 4, ptr %82, align 8, !tbaa !29
  br label %83

83:                                               ; preds = %74, %79
  %.3 = phi i32 [ %.270, %79 ], [ 0, %74 ]
  call void @llvm.lifetime.end.p0(i64 16, ptr nonnull %4) #12
  br label %97

84:                                               ; preds = %38
  %85 = call i32 @strcmp(ptr noundef nonnull dereferenceable(1) %10, ptr noundef nonnull dereferenceable(21) @.str.16) #13
  %86 = icmp eq i32 %85, 0
  br i1 %86, label %87, label %97

87:                                               ; preds = %84
  %88 = load ptr, ptr %7, align 8, !tbaa !21
  %89 = call i32 @EVP_set_default_properties(ptr noundef %88, ptr noundef null) #12
  %90 = getelementptr inbounds nuw i8, ptr %.072, i64 24
  %91 = load i64, ptr %90, align 8, !tbaa !30
  %92 = icmp ugt i64 %91, 3
  br i1 %92, label %93, label %.critedge

93:                                               ; preds = %87
  %94 = getelementptr inbounds nuw i8, ptr %.072, i64 16
  %95 = load ptr, ptr %94, align 8, !tbaa !28
  store i32 %89, ptr %95, align 4, !tbaa !31
  %96 = getelementptr inbounds nuw i8, ptr %.072, i64 32
  store i64 4, ptr %96, align 8, !tbaa !29
  br label %97

97:                                               ; preds = %93, %37, %84, %83
  %.5 = phi i32 [ %.1, %37 ], [ %.3, %83 ], [ 1, %84 ], [ 1, %93 ]
  %98 = getelementptr inbounds nuw i8, ptr %.072, i64 40
  %.not = icmp eq i32 %.5, 0
  br i1 %.not, label %.critedge, label %9, !llvm.loop !32

.critedge:                                        ; preds = %87, %97, %9
  %.050.lcssa = phi i32 [ 0, %97 ], [ 1, %9 ], [ 0, %87 ]
  ret i32 %.050.lcssa
}